
boot_ucore.elf:     file format elf32-littlearm


Disassembly of section .text:

00000000 <_start>:
   0:	e3a0da01 	mov	sp, #4096	; 0x1000
   4:	ea0000b9 	b	2f0 <mymain>

00000008 <uart_putchar>:
   8:	e52db004 	push	{fp}		; (str fp, [sp, #-4]!)
   c:	e28db000 	add	fp, sp, #0
  10:	e24dd00c 	sub	sp, sp, #12
  14:	e1a03000 	mov	r3, r0
  18:	e54b3005 	strb	r3, [fp, #-5]
  1c:	e59f3010 	ldr	r3, [pc, #16]	; 34 <uart_putchar+0x2c>
  20:	e55b2005 	ldrb	r2, [fp, #-5]
  24:	e5832000 	str	r2, [r3]
  28:	e28bd000 	add	sp, fp, #0
  2c:	e8bd0800 	pop	{fp}
  30:	e12fff1e 	bx	lr
  34:	ff012000 	undefined instruction 0xff012000

00000038 <putchar>:
  38:	e92d4800 	push	{fp, lr}
  3c:	e28db004 	add	fp, sp, #4
  40:	e24dd008 	sub	sp, sp, #8
  44:	e50b0008 	str	r0, [fp, #-8]
  48:	e51b3008 	ldr	r3, [fp, #-8]
  4c:	e6ef3073 	uxtb	r3, r3
  50:	e1a00003 	mov	r0, r3
  54:	ebffffeb 	bl	8 <uart_putchar>
  58:	e1a00003 	mov	r0, r3
  5c:	e24bd004 	sub	sp, fp, #4
  60:	e8bd8800 	pop	{fp, pc}

00000064 <puts>:
  64:	e92d4800 	push	{fp, lr}
  68:	e28db004 	add	fp, sp, #4
  6c:	e24dd008 	sub	sp, sp, #8
  70:	e50b0008 	str	r0, [fp, #-8]
  74:	ea000006 	b	94 <puts+0x30>
  78:	e51b3008 	ldr	r3, [fp, #-8]
  7c:	e5d33000 	ldrb	r3, [r3]
  80:	e51b2008 	ldr	r2, [fp, #-8]
  84:	e2822001 	add	r2, r2, #1
  88:	e50b2008 	str	r2, [fp, #-8]
  8c:	e1a00003 	mov	r0, r3
  90:	ebffffe8 	bl	38 <putchar>
  94:	e51b3008 	ldr	r3, [fp, #-8]
  98:	e5d33000 	ldrb	r3, [r3]
  9c:	e3530000 	cmp	r3, #0
  a0:	1afffff4 	bne	78 <puts+0x14>
  a4:	e3a03000 	mov	r3, #0
  a8:	e1a00003 	mov	r0, r3
  ac:	e24bd004 	sub	sp, fp, #4
  b0:	e8bd8800 	pop	{fp, pc}

000000b4 <putchar_hex>:
  b4:	e92d4800 	push	{fp, lr}
  b8:	e28db004 	add	fp, sp, #4
  bc:	e24dd010 	sub	sp, sp, #16
  c0:	e1a03000 	mov	r3, r0
  c4:	e54b300d 	strb	r3, [fp, #-13]
  c8:	e59f3044 	ldr	r3, [pc, #68]	; 114 <putchar_hex+0x60>
  cc:	e50b3008 	str	r3, [fp, #-8]
  d0:	e55b300d 	ldrb	r3, [fp, #-13]
  d4:	e1a03223 	lsr	r3, r3, #4
  d8:	e6ef3073 	uxtb	r3, r3
  dc:	e51b2008 	ldr	r2, [fp, #-8]
  e0:	e0823003 	add	r3, r2, r3
  e4:	e5d33000 	ldrb	r3, [r3]
  e8:	e1a00003 	mov	r0, r3
  ec:	ebffffd1 	bl	38 <putchar>
  f0:	e55b300d 	ldrb	r3, [fp, #-13]
  f4:	e203300f 	and	r3, r3, #15
  f8:	e51b2008 	ldr	r2, [fp, #-8]
  fc:	e0823003 	add	r3, r2, r3
 100:	e5d33000 	ldrb	r3, [r3]
 104:	e1a00003 	mov	r0, r3
 108:	ebffffca 	bl	38 <putchar>
 10c:	e24bd004 	sub	sp, fp, #4
 110:	e8bd8800 	pop	{fp, pc}
 114:	0000034c 	andeq	r0, r0, ip, asr #6

00000118 <putint_hex>:
 118:	e92d4800 	push	{fp, lr}
 11c:	e28db004 	add	fp, sp, #4
 120:	e24dd008 	sub	sp, sp, #8
 124:	e50b0008 	str	r0, [fp, #-8]
 128:	e51b3008 	ldr	r3, [fp, #-8]
 12c:	e1a03c23 	lsr	r3, r3, #24
 130:	e6ef3073 	uxtb	r3, r3
 134:	e1a00003 	mov	r0, r3
 138:	ebffffdd 	bl	b4 <putchar_hex>
 13c:	e51b3008 	ldr	r3, [fp, #-8]
 140:	e1a03843 	asr	r3, r3, #16
 144:	e6ef3073 	uxtb	r3, r3
 148:	e1a00003 	mov	r0, r3
 14c:	ebffffd8 	bl	b4 <putchar_hex>
 150:	e51b3008 	ldr	r3, [fp, #-8]
 154:	e1a03443 	asr	r3, r3, #8
 158:	e6ef3073 	uxtb	r3, r3
 15c:	e1a00003 	mov	r0, r3
 160:	ebffffd3 	bl	b4 <putchar_hex>
 164:	e51b3008 	ldr	r3, [fp, #-8]
 168:	e6ef3073 	uxtb	r3, r3
 16c:	e1a00003 	mov	r0, r3
 170:	ebffffcf 	bl	b4 <putchar_hex>
 174:	e24bd004 	sub	sp, fp, #4
 178:	e8bd8800 	pop	{fp, pc}

0000017c <load_elf_from>:
 17c:	e92d4800 	push	{fp, lr}
 180:	e28db004 	add	fp, sp, #4
 184:	e24dd020 	sub	sp, sp, #32
 188:	e50b0020 	str	r0, [fp, #-32]
 18c:	e51b3020 	ldr	r3, [fp, #-32]
 190:	e2833020 	add	r3, r3, #32
 194:	e5933000 	ldr	r3, [r3]
 198:	e50b300c 	str	r3, [fp, #-12]
 19c:	e51b300c 	ldr	r3, [fp, #-12]
 1a0:	e2833028 	add	r3, r3, #40	; 0x28
 1a4:	e50b3010 	str	r3, [fp, #-16]
 1a8:	e59f012c 	ldr	r0, [pc, #300]	; 2dc <load_elf_from+0x160>
 1ac:	ebffffac 	bl	64 <puts>
 1b0:	e51b000c 	ldr	r0, [fp, #-12]
 1b4:	ebffffd7 	bl	118 <putint_hex>
 1b8:	e3a0000a 	mov	r0, #10
 1bc:	ebffff9d 	bl	38 <putchar>
 1c0:	e59f0118 	ldr	r0, [pc, #280]	; 2e0 <load_elf_from+0x164>
 1c4:	ebffffa6 	bl	64 <puts>
 1c8:	e51b0010 	ldr	r0, [fp, #-16]
 1cc:	ebffffd1 	bl	118 <putint_hex>
 1d0:	e3a0000a 	mov	r0, #10
 1d4:	ebffff97 	bl	38 <putchar>
 1d8:	e51b3010 	ldr	r3, [fp, #-16]
 1dc:	e2833a01 	add	r3, r3, #4096	; 0x1000
 1e0:	e2833010 	add	r3, r3, #16
 1e4:	e5933000 	ldr	r3, [r3]
 1e8:	e50b3014 	str	r3, [fp, #-20]
 1ec:	e51b3010 	ldr	r3, [fp, #-16]
 1f0:	e2833a01 	add	r3, r3, #4096	; 0x1000
 1f4:	e2833014 	add	r3, r3, #20
 1f8:	e5933000 	ldr	r3, [r3]
 1fc:	e50b3018 	str	r3, [fp, #-24]
 200:	e51b3010 	ldr	r3, [fp, #-16]
 204:	e2833a01 	add	r3, r3, #4096	; 0x1000
 208:	e283300c 	add	r3, r3, #12
 20c:	e5933000 	ldr	r3, [r3]
 210:	e50b301c 	str	r3, [fp, #-28]
 214:	e59f00c8 	ldr	r0, [pc, #200]	; 2e4 <load_elf_from+0x168>
 218:	ebffff91 	bl	64 <puts>
 21c:	e51b0014 	ldr	r0, [fp, #-20]
 220:	ebffffbc 	bl	118 <putint_hex>
 224:	e3a0000a 	mov	r0, #10
 228:	ebffff82 	bl	38 <putchar>
 22c:	e59f00b4 	ldr	r0, [pc, #180]	; 2e8 <load_elf_from+0x16c>
 230:	ebffff8b 	bl	64 <puts>
 234:	e51b0018 	ldr	r0, [fp, #-24]
 238:	ebffffb6 	bl	118 <putint_hex>
 23c:	e3a0000a 	mov	r0, #10
 240:	ebffff7c 	bl	38 <putchar>
 244:	e59f00a0 	ldr	r0, [pc, #160]	; 2ec <load_elf_from+0x170>
 248:	ebffff85 	bl	64 <puts>
 24c:	e51b001c 	ldr	r0, [fp, #-28]
 250:	ebffffb0 	bl	118 <putint_hex>
 254:	e3a0000a 	mov	r0, #10
 258:	ebffff76 	bl	38 <putchar>
 25c:	e51b3018 	ldr	r3, [fp, #-24]
 260:	e2833064 	add	r3, r3, #100	; 0x64
 264:	e50b3018 	str	r3, [fp, #-24]
 268:	e3a03000 	mov	r3, #0
 26c:	e50b3008 	str	r3, [fp, #-8]
 270:	ea00000e 	b	2b0 <load_elf_from+0x134>
 274:	e51b3008 	ldr	r3, [fp, #-8]
 278:	e1a02103 	lsl	r2, r3, #2
 27c:	e51b301c 	ldr	r3, [fp, #-28]
 280:	e0823003 	add	r3, r2, r3
 284:	e51b2008 	ldr	r2, [fp, #-8]
 288:	e1a01102 	lsl	r1, r2, #2
 28c:	e51b2014 	ldr	r2, [fp, #-20]
 290:	e0811002 	add	r1, r1, r2
 294:	e51b2020 	ldr	r2, [fp, #-32]
 298:	e0812002 	add	r2, r1, r2
 29c:	e5922000 	ldr	r2, [r2]
 2a0:	e5832000 	str	r2, [r3]
 2a4:	e51b3008 	ldr	r3, [fp, #-8]
 2a8:	e2833001 	add	r3, r3, #1
 2ac:	e50b3008 	str	r3, [fp, #-8]
 2b0:	e51b3018 	ldr	r3, [fp, #-24]
 2b4:	e2832003 	add	r2, r3, #3
 2b8:	e3530000 	cmp	r3, #0
 2bc:	b1a03002 	movlt	r3, r2
 2c0:	e1a03143 	asr	r3, r3, #2
 2c4:	e1a02003 	mov	r2, r3
 2c8:	e51b3008 	ldr	r3, [fp, #-8]
 2cc:	e1520003 	cmp	r2, r3
 2d0:	caffffe7 	bgt	274 <load_elf_from+0xf8>
 2d4:	e24bd004 	sub	sp, fp, #4
 2d8:	e8bd8800 	pop	{fp, pc}
 2dc:	00000360 	andeq	r0, r0, r0, ror #6
 2e0:	00000384 	andeq	r0, r0, r4, lsl #7
 2e4:	000003ac 	andeq	r0, r0, ip, lsr #7
 2e8:	000003c4 	andeq	r0, r0, r4, asr #7
 2ec:	000003d8 	ldrdeq	r0, [r0], -r8

000002f0 <mymain>:
 2f0:	e92d4800 	push	{fp, lr}
 2f4:	e28db004 	add	fp, sp, #4
 2f8:	e24dd008 	sub	sp, sp, #8
 2fc:	e3a03a01 	mov	r3, #4096	; 0x1000
 300:	e50b3008 	str	r3, [fp, #-8]
 304:	e51b3008 	ldr	r3, [fp, #-8]
 308:	e5933000 	ldr	r3, [r3]
 30c:	e1a00003 	mov	r0, r3
 310:	ebffff80 	bl	118 <putint_hex>
 314:	e59f0024 	ldr	r0, [pc, #36]	; 340 <mymain+0x50>
 318:	ebffff51 	bl	64 <puts>
 31c:	e59f0020 	ldr	r0, [pc, #32]	; 344 <mymain+0x54>
 320:	ebffff4f 	bl	64 <puts>
 324:	e3a00a01 	mov	r0, #4096	; 0x1000
 328:	ebffff93 	bl	17c <load_elf_from>
 32c:	e59f0014 	ldr	r0, [pc, #20]	; 348 <mymain+0x58>
 330:	ebffff4b 	bl	64 <puts>
 334:	e3a03942 	mov	r3, #1081344	; 0x108000
 338:	e12fff33 	blx	r3
 33c:	eafffffe 	b	33c <mymain+0x4c>
 340:	000003f0 	strdeq	r0, [r0], -r0
 344:	00000400 	andeq	r0, r0, r0, lsl #8
 348:	00000448 	andeq	r0, r0, r8, asr #8

Disassembly of section .rodata:

0000034c <.rodata>:
 34c:	33323130 	teqcc	r2, #12
 350:	37363534 	undefined instruction 0x37363534
 354:	42413938 	submi	r3, r1, #917504	; 0xe0000
 358:	46454443 	strbmi	r4, [r5], -r3, asr #8
 35c:	00000000 	andeq	r0, r0, r0
 360:	726f6375 	rsbvc	r6, pc, #-738197503	; 0xd4000001
 364:	65732065 	ldrbvs	r2, [r3, #-101]!	; 0x65
 368:	6f697463 	svcvs	0x00697463
 36c:	6568206e 	strbvs	r2, [r8, #-110]!	; 0x6e
 370:	72656461 	rsbvc	r6, r5, #1627389952	; 0x61000000
 374:	73616220 	cmnvc	r1, #2
 378:	64612065 	strbtvs	r2, [r1], #-101	; 0x65
 37c:	203a7264 	eorscs	r7, sl, r4, ror #4
 380:	00000000 	andeq	r0, r0, r0
 384:	726f6375 	rsbvc	r6, pc, #-738197503	; 0xd4000001
 388:	742e2065 	strtvc	r2, [lr], #-101	; 0x65
 38c:	20747865 	rsbscs	r7, r4, r5, ror #16
 390:	74636573 	strbtvc	r6, [r3], #-1395	; 0x573
 394:	206e6f69 	rsbcs	r6, lr, r9, ror #30
 398:	64616568 	strbtvs	r6, [r1], #-1384	; 0x568
 39c:	62207265 	eorvs	r7, r0, #1342177286	; 0x50000006
 3a0:	20657361 	rsbcs	r7, r5, r1, ror #6
 3a4:	72646461 	rsbvc	r6, r4, #1627389952	; 0x61000000
 3a8:	0000203a 	andeq	r2, r0, sl, lsr r0
 3ac:	726f6375 	rsbvc	r6, pc, #-738197503	; 0xd4000001
 3b0:	742e2065 	strtvc	r2, [lr], #-101	; 0x65
 3b4:	20747865 	rsbscs	r7, r4, r5, ror #16
 3b8:	7366666f 	cmnvc	r6, #116391936	; 0x6f00000
 3bc:	203a7465 	eorscs	r7, sl, r5, ror #8
 3c0:	00000000 	andeq	r0, r0, r0
 3c4:	726f6375 	rsbvc	r6, pc, #-738197503	; 0xd4000001
 3c8:	742e2065 	strtvc	r2, [lr], #-101	; 0x65
 3cc:	20747865 	rsbscs	r7, r4, r5, ror #16
 3d0:	657a6973 	ldrbvs	r6, [sl, #-2419]!	; 0x973
 3d4:	0000203a 	andeq	r2, r0, sl, lsr r0
 3d8:	726f6375 	rsbvc	r6, pc, #-738197503	; 0xd4000001
 3dc:	742e2065 	strtvc	r2, [lr], #-101	; 0x65
 3e0:	20747865 	rsbscs	r7, r4, r5, ror #16
 3e4:	63657865 	cmnvs	r5, #6619136	; 0x650000
 3e8:	64646120 	strbtvs	r6, [r4], #-288	; 0x120
 3ec:	00203a72 	eoreq	r3, r0, r2, ror sl
 3f0:	6f623c0a 	svcvs	0x00623c0a
 3f4:	203e746f 	eorscs	r7, lr, pc, ror #8
 3f8:	6e69616d 	powvsez	f6, f1, #5.0
 3fc:	000a632e 	andeq	r6, sl, lr, lsr #6
 400:	746f6f62 	strbtvc	r6, [pc], #3938	; 408 <mymain+0x118>
 404:	2e676e69 	cdpcs	14, 6, cr6, cr7, cr9, {3}
 408:	6f6c2e2e 	svcvs	0x006c2e2e
 40c:	75206461 	strvc	r6, [r0, #-1121]!	; 0x461
 410:	65726f63 	ldrbvs	r6, [r2, #-3939]!	; 0xf63
 414:	666c652e 	strbtvs	r6, [ip], -lr, lsr #10
 418:	6f726620 	svcvs	0x00726620
 41c:	7830206d 	ldmdavc	r0!, {r0, r2, r3, r5, r6, sp}
 420:	30303031 	eorscc	r3, r0, r1, lsr r0
 424:	7570202c 	ldrbvc	r2, [r0, #-44]!	; 0x2c
 428:	742e2074 	strtvc	r2, [lr], #-116	; 0x74
 42c:	20747865 	rsbscs	r7, r4, r5, ror #16
 430:	74636573 	strbtvc	r6, [r3], #-1395	; 0x573
 434:	206e6f69 	rsbcs	r6, lr, r9, ror #30
 438:	30206f74 	eorcc	r6, r0, r4, ror pc
 43c:	38303178 	ldmdacc	r0!, {r3, r4, r5, r6, r8, ip, sp}
 440:	0a303030 	beq	c0c508 <kernel_start_end+0xc03091>
 444:	00000000 	andeq	r0, r0, r0
 448:	74206f67 	strtvc	r6, [r0], #-3943	; 0xf67
 44c:	7830206f 	ldmdavc	r0!, {r0, r1, r2, r3, r5, r6, sp}
 450:	30383031 	eorscc	r3, r8, r1, lsr r0
 454:	74203030 	strtvc	r3, [r0], #-48	; 0x30
 458:	7572206f 	ldrbvc	r2, [r2, #-111]!	; 0x6f
 45c:	6375206e 	cmnvs	r5, #110	; 0x6e
 460:	0a65726f 	beq	195ce24 <kernel_start_end+0x19539ad>
 464:	00000000 	andeq	r0, r0, r0

Disassembly of section .data:

00001000 <_binary_ucore_elf_start>:
    1000:	464c457f 	undefined instruction 0x464c457f
    1004:	00010101 	andeq	r0, r1, r1, lsl #2
	...
    1010:	00280002 	eoreq	r0, r8, r2
    1014:	00000001 	andeq	r0, r0, r1
    1018:	00108000 	andseq	r8, r0, r0
    101c:	00000034 	andeq	r0, r0, r4, lsr r0
    1020:	000081b4 	undefined instruction 0x000081b4
    1024:	05000002 	streq	r0, [r0, #-2]
    1028:	00200034 	eoreq	r0, r0, r4, lsr r0
    102c:	00280003 	eoreq	r0, r8, r3
    1030:	00050008 	andeq	r0, r5, r8
    1034:	00000001 	andeq	r0, r0, r1
    1038:	00008000 	andeq	r8, r0, r0
    103c:	00108000 	andseq	r8, r0, r0
    1040:	00108000 	andseq	r8, r0, r0
    1044:	00000120 	andeq	r0, r0, r0, lsr #2
    1048:	00000120 	andeq	r0, r0, r0, lsr #2
    104c:	00000005 	andeq	r0, r0, r5
    1050:	00008000 	andeq	r8, r0, r0
    1054:	6474e551 	ldrbtvs	lr, [r4], #-1361	; 0x551
	...
    106c:	00000007 	andeq	r0, r0, r7
    1070:	00000004 	andeq	r0, r0, r4
    1074:	65041580 	strvs	r1, [r4, #-1408]	; 0x580
	...
    108c:	00002800 	andeq	r2, r0, r0, lsl #16
    1090:	00000004 	andeq	r0, r0, r4
	...
    9000:	e3a0da01 	mov	sp, #4096	; 0x1000
    9004:	eaffffff 	b	9008 <_binary_ucore_elf_size+0xb91>
    9008:	e92d4800 	push	{fp, lr}
    900c:	e28db004 	add	fp, sp, #4
    9010:	e59f0014 	ldr	r0, [pc, #20]	; 902c <_binary_ucore_elf_size+0xbb5>
    9014:	eb000010 	bl	905c <_binary_ucore_elf_size+0xbe5>
    9018:	e59f0010 	ldr	r0, [pc, #16]	; 9030 <_binary_ucore_elf_size+0xbb9>
    901c:	eb00000e 	bl	905c <_binary_ucore_elf_size+0xbe5>
    9020:	e59f000c 	ldr	r0, [pc, #12]	; 9034 <_binary_ucore_elf_size+0xbbd>
    9024:	eb00000c 	bl	905c <_binary_ucore_elf_size+0xbe5>
    9028:	eafffffe 	b	9028 <_binary_ucore_elf_size+0xbb1>
    902c:	001080dc 	ldrsbeq	r8, [r0], -ip
    9030:	001080f0 	ldrsheq	r8, [r0], -r0
    9034:	00108100 	andseq	r8, r0, r0, lsl #2
    9038:	e92d4800 	push	{fp, lr}
    903c:	e28db004 	add	fp, sp, #4
    9040:	e24dd008 	sub	sp, sp, #8
    9044:	e50b0008 	str	r0, [fp, #-8]
    9048:	e51b0008 	ldr	r0, [fp, #-8]
    904c:	eb000016 	bl	90ac <_binary_ucore_elf_size+0xc35>
    9050:	e1a00003 	mov	r0, r3
    9054:	e24bd004 	sub	sp, fp, #4
    9058:	e8bd8800 	pop	{fp, pc}
    905c:	e92d4800 	push	{fp, lr}
    9060:	e28db004 	add	fp, sp, #4
    9064:	e24dd008 	sub	sp, sp, #8
    9068:	e50b0008 	str	r0, [fp, #-8]
    906c:	ea000006 	b	908c <_binary_ucore_elf_size+0xc15>
    9070:	e51b3008 	ldr	r3, [fp, #-8]
    9074:	e5d33000 	ldrb	r3, [r3]
    9078:	e51b2008 	ldr	r2, [fp, #-8]
    907c:	e2822001 	add	r2, r2, #1
    9080:	e50b2008 	str	r2, [fp, #-8]
    9084:	e1a00003 	mov	r0, r3
    9088:	ebffffea 	bl	9038 <_binary_ucore_elf_size+0xbc1>
    908c:	e51b3008 	ldr	r3, [fp, #-8]
    9090:	e5d33000 	ldrb	r3, [r3]
    9094:	e3530000 	cmp	r3, #0
    9098:	1afffff4 	bne	9070 <_binary_ucore_elf_size+0xbf9>
    909c:	e3a03000 	mov	r3, #0
    90a0:	e1a00003 	mov	r0, r3
    90a4:	e24bd004 	sub	sp, fp, #4
    90a8:	e8bd8800 	pop	{fp, pc}
    90ac:	e52db004 	push	{fp}		; (str fp, [sp, #-4]!)
    90b0:	e28db000 	add	fp, sp, #0
    90b4:	e24dd00c 	sub	sp, sp, #12
    90b8:	e1a03000 	mov	r3, r0
    90bc:	e54b3005 	strb	r3, [fp, #-5]
    90c0:	e59f3010 	ldr	r3, [pc, #16]	; 90d8 <_binary_ucore_elf_size+0xc61>
    90c4:	e55b2005 	ldrb	r2, [fp, #-5]
    90c8:	e5832000 	str	r2, [r3]
    90cc:	e28bd000 	add	sp, fp, #0
    90d0:	e8bd0800 	pop	{fp}
    90d4:	e12fff1e 	bx	lr
    90d8:	ff012000 	undefined instruction 0xff012000
    90dc:	63753c0a 	cmnvs	r5, #2560	; 0xa00
    90e0:	3e65726f 	cdpcc	2, 6, cr7, cr5, cr15, {3}
    90e4:	696e6920 	stmdbvs	lr!, {r5, r8, fp, sp, lr}^
    90e8:	0a632e74 	beq	18d4ac0 <_binary_ucore_elf_end+0x18cb649>
    90ec:	00000000 	andeq	r0, r0, r0
    90f0:	6c65680a 	stclvs	8, cr6, [r5], #-40	; 0xffffffd8
    90f4:	202c6f6c 	eorcs	r6, ip, ip, ror #30
    90f8:	726f6375 	rsbvc	r6, pc, #-738197503	; 0xd4000001
    90fc:	00000a65 	andeq	r0, r0, r5, ror #20
    9100:	7079740a 	rsbsvc	r7, r9, sl, lsl #8
    9104:	74432065 	strbvc	r2, [r3], #-101	; 0x65
    9108:	432b6c72 	teqmi	fp, #29184	; 0x7200
    910c:	206f7420 	rsbcs	r7, pc, r0, lsr #8
    9110:	20646e65 	rsbcs	r6, r4, r5, ror #28
    9114:	73696874 	cmnvc	r9, #7602176	; 0x740000
    9118:	6d656420 	cfstrdvs	mvd6, [r5, #-128]!	; 0xffffff80
    911c:	00000a6f 	andeq	r0, r0, pc, ror #20
    9120:	00003341 	andeq	r3, r0, r1, asr #6
    9124:	61656100 	cmnvs	r5, r0, lsl #2
    9128:	01006962 	tsteq	r0, r2, ror #18
    912c:	00000029 	andeq	r0, r0, r9, lsr #32
    9130:	4d524105 	ldfmie	f4, [r2, #-20]	; 0xffffffec
    9134:	36373131 	undefined instruction 0x36373131
    9138:	2d465a4a 	vstrcs	s11, [r6, #-296]	; 0xfffffed8
    913c:	09060053 	stmdbeq	r6, {r0, r1, r4, r6}
    9140:	01090108 	tsteq	r9, r8, lsl #2
    9144:	0412020a 	ldreq	r0, [r2], #-522	; 0x20a
    9148:	01150114 	tsteq	r5, r4, lsl r1
    914c:	01180317 	tsteq	r8, r7, lsl r3
    9150:	031b021a 	tsteq	fp, #-1610612735	; 0xa0000001
    9154:	3a434347 	bcc	10d9e78 <_binary_ucore_elf_end+0x10d0a01>
    9158:	74632820 	strbtvc	r2, [r3], #-2080	; 0x820
    915c:	312d676e 	teqcc	sp, lr, ror #14
    9160:	312e382e 	teqcc	lr, lr, lsr #16
    9164:	2941462d 	stmdbcs	r1, {r0, r2, r3, r5, r9, sl, lr}^
    9168:	352e3420 	strcc	r3, [lr, #-1056]!	; 0x420
    916c:	0000312e 	andeq	r3, r0, lr, lsr #2
    9170:	6d79732e 	ldclvs	3, cr7, [r9, #-184]!	; 0xffffff48
    9174:	00626174 	rsbeq	r6, r2, r4, ror r1
    9178:	7274732e 	rsbsvc	r7, r4, #-1207959552	; 0xb8000000
    917c:	00626174 	rsbeq	r6, r2, r4, ror r1
    9180:	7368732e 	cmnvc	r8, #-1207959552	; 0xb8000000
    9184:	61747274 	cmnvs	r4, r4, ror r2
    9188:	742e0062 	strtvc	r0, [lr], #-98	; 0x62
    918c:	00747865 	rsbseq	r7, r4, r5, ror #16
    9190:	646f722e 	strbtvs	r7, [pc], #558	; 9198 <_binary_ucore_elf_size+0xd21>
    9194:	00617461 	rsbeq	r7, r1, r1, ror #8
    9198:	4d52412e 	ldfmie	f4, [r2, #-184]	; 0xffffff48
    919c:	7474612e 	ldrbtvc	r6, [r4], #-302	; 0x12e
    91a0:	75626972 	strbvc	r6, [r2, #-2418]!	; 0x972
    91a4:	00736574 	rsbseq	r6, r3, r4, ror r5
    91a8:	6d6f632e 	stclvs	3, cr6, [pc, #-184]!	; 0xffffff48
    91ac:	746e656d 	strbtvc	r6, [lr], #-1389	; 0x56d
	...
    91dc:	0000001b 	andeq	r0, r0, fp, lsl r0
    91e0:	00000001 	andeq	r0, r0, r1
    91e4:	00000006 	andeq	r0, r0, r6
    91e8:	00108000 	andseq	r8, r0, r0
    91ec:	00008000 	andeq	r8, r0, r0
    91f0:	000000dc 	ldrdeq	r0, [r0], -ip
	...
    91fc:	00000004 	andeq	r0, r0, r4
    9200:	00000000 	andeq	r0, r0, r0
    9204:	00000021 	andeq	r0, r0, r1, lsr #32
    9208:	00000001 	andeq	r0, r0, r1
    920c:	00000002 	andeq	r0, r0, r2
    9210:	001080dc 	ldrsbeq	r8, [r0], -ip
    9214:	000080dc 	ldrdeq	r8, [r0], -ip
    9218:	00000044 	andeq	r0, r0, r4, asr #32
	...
    9224:	00000004 	andeq	r0, r0, r4
    9228:	00000000 	andeq	r0, r0, r0
    922c:	00000029 	andeq	r0, r0, r9, lsr #32
    9230:	70000003 	andvc	r0, r0, r3
	...
    923c:	00008120 	andeq	r8, r0, r0, lsr #2
    9240:	00000034 	andeq	r0, r0, r4, lsr r0
	...
    924c:	00000001 	andeq	r0, r0, r1
    9250:	00000000 	andeq	r0, r0, r0
    9254:	00000039 	andeq	r0, r0, r9, lsr r0
    9258:	00000001 	andeq	r0, r0, r1
    925c:	00000030 	andeq	r0, r0, r0, lsr r0
    9260:	00000000 	andeq	r0, r0, r0
    9264:	00008154 	andeq	r8, r0, r4, asr r1
    9268:	0000001b 	andeq	r0, r0, fp, lsl r0
	...
    9274:	00000001 	andeq	r0, r0, r1
    9278:	00000001 	andeq	r0, r0, r1
    927c:	00000011 	andeq	r0, r0, r1, lsl r0
    9280:	00000003 	andeq	r0, r0, r3
	...
    928c:	0000816f 	andeq	r8, r0, pc, ror #2
    9290:	00000042 	andeq	r0, r0, r2, asr #32
	...
    929c:	00000001 	andeq	r0, r0, r1
    92a0:	00000000 	andeq	r0, r0, r0
    92a4:	00000001 	andeq	r0, r0, r1
    92a8:	00000002 	andeq	r0, r0, r2
	...
    92b4:	000082f4 	strdeq	r8, [r0], -r4
    92b8:	00000140 	andeq	r0, r0, r0, asr #2
    92bc:	00000007 	andeq	r0, r0, r7
    92c0:	0000000f 	andeq	r0, r0, pc
    92c4:	00000004 	andeq	r0, r0, r4
    92c8:	00000010 	andeq	r0, r0, r0, lsl r0
    92cc:	00000009 	andeq	r0, r0, r9
    92d0:	00000003 	andeq	r0, r0, r3
	...
    92dc:	00008434 	andeq	r8, r0, r4, lsr r4
    92e0:	00000043 	andeq	r0, r0, r3, asr #32
	...
    92ec:	00000001 	andeq	r0, r0, r1
	...
    9308:	00108000 	andseq	r8, r0, r0
    930c:	00000000 	andeq	r0, r0, r0
    9310:	00010003 	andeq	r0, r1, r3
    9314:	00000000 	andeq	r0, r0, r0
    9318:	001080dc 	ldrsbeq	r8, [r0], -ip
    931c:	00000000 	andeq	r0, r0, r0
    9320:	00020003 	andeq	r0, r2, r3
	...
    9330:	00030003 	andeq	r0, r3, r3
	...
    9340:	00040003 	andeq	r0, r4, r3
    9344:	00000001 	andeq	r0, r0, r1
    9348:	00108000 	andseq	r8, r0, r0
    934c:	00000000 	andeq	r0, r0, r0
    9350:	00010000 	andeq	r0, r1, r0
    9354:	00000004 	andeq	r0, r0, r4
	...
    9360:	fff10004 	undefined instruction 0xfff10004
    9364:	0000000b 	andeq	r0, r0, fp
    9368:	001080dc 	ldrsbeq	r8, [r0], -ip
    936c:	00000000 	andeq	r0, r0, r0
    9370:	00020000 	andeq	r0, r2, r0
    9374:	00000001 	andeq	r0, r0, r1
    9378:	00108008 	andseq	r8, r0, r8
    937c:	00000000 	andeq	r0, r0, r0
    9380:	00010000 	andeq	r0, r1, r0
    9384:	0000000b 	andeq	r0, r0, fp
    9388:	0010802c 	andseq	r8, r0, ip, lsr #32
    938c:	00000000 	andeq	r0, r0, r0
    9390:	00010000 	andeq	r0, r1, r0
    9394:	0000000e 	andeq	r0, r0, lr
	...
    93a0:	fff10004 	undefined instruction 0xfff10004
    93a4:	00000001 	andeq	r0, r0, r1
    93a8:	00108038 	andseq	r8, r0, r8, lsr r0
    93ac:	00000000 	andeq	r0, r0, r0
    93b0:	00010000 	andeq	r0, r1, r0
    93b4:	00000016 	andeq	r0, r0, r6, lsl r0
	...
    93c0:	fff10004 	undefined instruction 0xfff10004
    93c4:	00000001 	andeq	r0, r0, r1
    93c8:	001080ac 	andseq	r8, r0, ip, lsr #1
    93cc:	00000000 	andeq	r0, r0, r0
    93d0:	00010000 	andeq	r0, r1, r0
    93d4:	0000000b 	andeq	r0, r0, fp
    93d8:	001080d8 	ldrsbeq	r8, [r0], -r8
    93dc:	00000000 	andeq	r0, r0, r0
    93e0:	00010000 	andeq	r0, r1, r0
    93e4:	0000001d 	andeq	r0, r0, sp, lsl r0
    93e8:	00108038 	andseq	r8, r0, r8, lsr r0
    93ec:	00000024 	andeq	r0, r0, r4, lsr #32
    93f0:	00010012 	andeq	r0, r1, r2, lsl r0
    93f4:	00000025 	andeq	r0, r0, r5, lsr #32
    93f8:	0010805c 	andseq	r8, r0, ip, asr r0
    93fc:	00000050 	andeq	r0, r0, r0, asr r0
    9400:	00010012 	andeq	r0, r1, r2, lsl r0
    9404:	0000002a 	andeq	r0, r0, sl, lsr #32
    9408:	00108000 	andseq	r8, r0, r0
    940c:	00000000 	andeq	r0, r0, r0
    9410:	00010010 	andeq	r0, r1, r0, lsl r0
    9414:	00000031 	andeq	r0, r0, r1, lsr r0
    9418:	00108008 	andseq	r8, r0, r8
    941c:	00000030 	andeq	r0, r0, r0, lsr r0
    9420:	00010012 	andeq	r0, r1, r2, lsl r0
    9424:	00000036 	andeq	r0, r0, r6, lsr r0
    9428:	001080ac 	andseq	r8, r0, ip, lsr #1
    942c:	00000030 	andeq	r0, r0, r0, lsr r0
    9430:	00010012 	andeq	r0, r1, r2, lsl r0
    9434:	00612400 	rsbeq	r2, r1, r0, lsl #8
    9438:	74696e69 	strbtvc	r6, [r9], #-3689	; 0xe69
    943c:	2400632e 	strcs	r6, [r0], #-814	; 0x32e
    9440:	74730064 	ldrbtvc	r0, [r3], #-100	; 0x64
    9444:	2e6f6964 	cdpcs	9, 6, cr6, cr15, cr4, {3}
    9448:	61750063 	cmnvs	r5, r3, rrx
    944c:	632e7472 	teqvs	lr, #1912602624	; 0x72000000
    9450:	74757000 	ldrbtvc	r7, [r5]
    9454:	72616863 	rsbvc	r6, r1, #6488064	; 0x630000
    9458:	74757000 	ldrbtvc	r7, [r5]
    945c:	735f0073 	cmpvc	pc, #115	; 0x73
    9460:	74726174 	ldrbtvc	r6, [r2], #-372	; 0x174
    9464:	696e6900 	stmdbvs	lr!, {r8, fp, sp, lr}^
    9468:	61750074 	cmnvs	r5, r4, ror r0
    946c:	705f7472 	subsvc	r7, pc, r2, ror r4
    9470:	68637475 	stmdavs	r3!, {r0, r2, r4, r5, r6, sl, ip, sp, lr}^
    9474:	Address 0x00009474 is out of bounds.


Disassembly of section .ARM.attributes:

00000000 <.ARM.attributes>:
   0:	00003341 	andeq	r3, r0, r1, asr #6
   4:	61656100 	cmnvs	r5, r0, lsl #2
   8:	01006962 	tsteq	r0, r2, ror #18
   c:	00000029 	andeq	r0, r0, r9, lsr #32
  10:	4d524105 	ldfmie	f4, [r2, #-20]	; 0xffffffec
  14:	36373131 	undefined instruction 0x36373131
  18:	2d465a4a 	vstrcs	s11, [r6, #-296]	; 0xfffffed8
  1c:	09060053 	stmdbeq	r6, {r0, r1, r4, r6}
  20:	01090108 	tsteq	r9, r8, lsl #2
  24:	0412020a 	ldreq	r0, [r2], #-522	; 0x20a
  28:	01150114 	tsteq	r5, r4, lsl r1
  2c:	01180317 	tsteq	r8, r7, lsl r3
  30:	031b021a 	tsteq	fp, #-1610612735	; 0xa0000001

Disassembly of section .comment:

00000000 <.comment>:
   0:	3a434347 	bcc	10d0d24 <kernel_start_end+0x10c78ad>
   4:	74632820 	strbtvc	r2, [r3], #-2080	; 0x820
   8:	312d676e 	teqcc	sp, lr, ror #14
   c:	312e382e 	teqcc	lr, lr, lsr #16
  10:	2941462d 	stmdbcs	r1, {r0, r2, r3, r5, r9, sl, lr}^
  14:	352e3420 	strcc	r3, [lr, #-1056]!	; 0x420
  18:	Address 0x00000018 is out of bounds.

