
ucore.elf:     file format elf32-littlearm


Disassembly of section .text:

00000000 <_start>:
   0:	e3a0da01 	mov	sp, #4096	; 0x1000
   4:	eaffffff 	b	8 <init>

00000008 <init>:
   8:	e92d4800 	push	{fp, lr}
   c:	e28db004 	add	fp, sp, #4
  10:	e59f000c 	ldr	r0, [pc, #12]	; 24 <init+0x1c>
  14:	eb00000d 	bl	50 <puts>
  18:	e59f0008 	ldr	r0, [pc, #8]	; 28 <init+0x20>
  1c:	eb00000b 	bl	50 <puts>
  20:	eafffffe 	b	20 <init+0x18>
  24:	000000d4 	ldrdeq	r0, [r0], -r4
  28:	000000e4 	andeq	r0, r0, r4, ror #1

0000002c <putchar>:
  2c:	e92d4800 	push	{fp, lr}
  30:	e28db004 	add	fp, sp, #4
  34:	e24dd008 	sub	sp, sp, #8
  38:	e50b0008 	str	r0, [fp, #-8]
  3c:	e51b0008 	ldr	r0, [fp, #-8]
  40:	eb000017 	bl	a4 <uart_putchar>
  44:	e24bd004 	sub	sp, fp, #4
  48:	e8bd4800 	pop	{fp, lr}
  4c:	e12fff1e 	bx	lr

00000050 <puts>:
  50:	e92d4800 	push	{fp, lr}
  54:	e28db004 	add	fp, sp, #4
  58:	e24dd008 	sub	sp, sp, #8
  5c:	e50b0008 	str	r0, [fp, #-8]
  60:	ea000006 	b	80 <puts+0x30>
  64:	e51b3008 	ldr	r3, [fp, #-8]
  68:	e5d33000 	ldrb	r3, [r3]
  6c:	e51b2008 	ldr	r2, [fp, #-8]
  70:	e2822001 	add	r2, r2, #1
  74:	e50b2008 	str	r2, [fp, #-8]
  78:	e1a00003 	mov	r0, r3
  7c:	ebffffea 	bl	2c <putchar>
  80:	e51b3008 	ldr	r3, [fp, #-8]
  84:	e5d33000 	ldrb	r3, [r3]
  88:	e3530000 	cmp	r3, #0
  8c:	1afffff4 	bne	64 <puts+0x14>
  90:	e3a03000 	mov	r3, #0
  94:	e1a00003 	mov	r0, r3
  98:	e24bd004 	sub	sp, fp, #4
  9c:	e8bd4800 	pop	{fp, lr}
  a0:	e12fff1e 	bx	lr

000000a4 <uart_putchar>:
  a4:	e52db004 	push	{fp}		; (str fp, [sp, #-4]!)
  a8:	e28db000 	add	fp, sp, #0
  ac:	e24dd00c 	sub	sp, sp, #12
  b0:	e1a03000 	mov	r3, r0
  b4:	e54b3005 	strb	r3, [fp, #-5]
  b8:	e59f3010 	ldr	r3, [pc, #16]	; d0 <uart_putchar+0x2c>
  bc:	e55b2005 	ldrb	r2, [fp, #-5]
  c0:	e5832000 	str	r2, [r3]
  c4:	e28bd000 	add	sp, fp, #0
  c8:	e8bd0800 	pop	{fp}
  cc:	e12fff1e 	bx	lr
  d0:	ff012000 	undefined instruction 0xff012000

Disassembly of section .rodata:

000000d4 <.rodata>:
  d4:	6c65680a 	stclvs	8, cr6, [r5], #-40	; 0xffffffd8
  d8:	202c6f6c 	eorcs	r6, ip, ip, ror #30
  dc:	726f6375 	rsbvc	r6, pc, #-738197503	; 0xd4000001
  e0:	00000a65 	andeq	r0, r0, r5, ror #20
  e4:	7079740a 	rsbsvc	r7, r9, sl, lsl #8
  e8:	74432065 	strbvc	r2, [r3], #-101	; 0x65
  ec:	432b6c72 	teqmi	fp, #29184	; 0x7200
  f0:	206f7420 	rsbcs	r7, pc, r0, lsr #8
  f4:	20646e65 	rsbcs	r6, r4, r5, ror #28
  f8:	73696874 	cmnvc	r9, #7602176	; 0x740000
  fc:	6d656420 	cfstrdvs	mvd6, [r5, #-128]!	; 0xffffff80
 100:	00000a6f 	andeq	r0, r0, pc, ror #20

Disassembly of section .ARM.attributes:

00000000 <.ARM.attributes>:
   0:	00002541 	andeq	r2, r0, r1, asr #10
   4:	61656100 	cmnvs	r5, r0, lsl #2
   8:	01006962 	tsteq	r0, r2, ror #18
   c:	0000001b 	andeq	r0, r0, fp, lsl r0
  10:	00543405 	subseq	r3, r4, r5, lsl #8
  14:	01080206 	tsteq	r8, r6, lsl #4
  18:	04120109 	ldreq	r0, [r2], #-265	; 0x109
  1c:	01150114 	tsteq	r5, r4, lsl r1
  20:	01180317 	tsteq	r8, r7, lsl r3
  24:	Address 0x00000024 is out of bounds.


Disassembly of section .comment:

00000000 <.comment>:
   0:	3a434347 	bcc	10d0d24 <uart_putchar+0x10d0c80>
   4:	74632820 	strbtvc	r2, [r3], #-2080	; 0x820
   8:	312d676e 	teqcc	sp, lr, ror #14
   c:	312e362e 	teqcc	lr, lr, lsr #12
  10:	2e342029 	cdpcs	0, 3, cr2, cr4, cr9, {1}
  14:	00332e34 	eorseq	r2, r3, r4, lsr lr
